target datalayout = "e-m:e-p270:32:32-p271:32:32-p272:64:64-i64:64-i128:128-f80:128-n8:16:32:64-S128"
target triple = "x86_64-pc-linux-gnu"

%struct.TXFM_2D_FLIP_CFG = type { i8, i32, i32, ptr, i8, i8, [12 x i8], [12 x i8], i8, i8, i32, i32 }

@inv_start_range = internal constant [19 x i8] c"\05\06\07\07\07\05\05\06\06\06\06\06\06\06\06\07\07\07\07", align 16

; Function Attrs: nounwind uwtable
define hidden void @av1_gen_inv_stage_range(ptr noundef %0, ptr noundef %1, ptr noundef %2, i8 noundef zeroext %3, i32 noundef %4) #0 {
  %6 = alloca ptr, align 8
  %7 = alloca ptr, align 8
  %8 = alloca ptr, align 8
  %9 = alloca i8, align 1
  %10 = alloca i32, align 4
  %11 = alloca i32, align 4
  %12 = alloca ptr, align 8
  %13 = alloca i8, align 1
  %14 = alloca i8, align 1
  %15 = alloca i32, align 4
  %16 = alloca i32, align 4
  %17 = alloca i32, align 4
  %18 = alloca i32, align 4
  store ptr %0, ptr %6, align 8
  store ptr %1, ptr %7, align 8
  store ptr %2, ptr %8, align 8
  store i8 %3, ptr %9, align 1
  store i32 %4, ptr %10, align 4
  %19 = load i8, ptr %9, align 1
  %20 = zext i8 %19 to i64
  %21 = getelementptr inbounds [19 x i8], ptr @inv_start_range, i64 0, i64 %20
  %22 = load i8, ptr %21, align 1
  %23 = sext i8 %22 to i32
  store i32 %23, ptr %11, align 4
  %24 = load ptr, ptr %8, align 8
  %25 = getelementptr inbounds nuw %struct.TXFM_2D_FLIP_CFG, ptr %24, i32 0, i32 3
  %26 = load ptr, ptr %25, align 8
  store ptr %26, ptr %12, align 8
  %27 = load i32, ptr %10, align 4
  %28 = icmp eq i32 %27, 8
  br i1 %28, label %29, label %30

29:                                               ; preds = %5
  store i8 16, ptr %13, align 1
  store i8 16, ptr %14, align 1
  br label %36

30:                                               ; preds = %5
  %31 = load i32, ptr %10, align 4
  %32 = icmp eq i32 %31, 10
  br i1 %32, label %33, label %34

33:                                               ; preds = %30
  store i8 18, ptr %13, align 1
  store i8 16, ptr %14, align 1
  br label %35

34:                                               ; preds = %30
  store i8 20, ptr %13, align 1
  store i8 18, ptr %14, align 1
  br label %35

35:                                               ; preds = %34, %33
  br label %36

36:                                               ; preds = %35, %29
  store i32 0, ptr %15, align 4
  br label %37

37:                                               ; preds = %82, %36
  %38 = load i32, ptr %15, align 4
  %39 = load ptr, ptr %8, align 8
  %40 = getelementptr inbounds nuw %struct.TXFM_2D_FLIP_CFG, ptr %39, i32 0, i32 11
  %41 = load i32, ptr %40, align 8
  %42 = icmp slt i32 %38, %41
  br i1 %42, label %43, label %46

43:                                               ; preds = %37
  %44 = load i32, ptr %15, align 4
  %45 = icmp slt i32 %44, 12
  br label %46

46:                                               ; preds = %43, %37
  %47 = phi i1 [ false, %37 ], [ %45, %43 ]
  br i1 %47, label %48, label %85

48:                                               ; preds = %46
  %49 = load ptr, ptr %8, align 8
  %50 = getelementptr inbounds nuw %struct.TXFM_2D_FLIP_CFG, ptr %49, i32 0, i32 7
  %51 = load i32, ptr %15, align 4
  %52 = sext i32 %51 to i64
  %53 = getelementptr inbounds [12 x i8], ptr %50, i64 0, i64 %52
  %54 = load i8, ptr %53, align 1
  %55 = sext i8 %54 to i32
  %56 = load i32, ptr %11, align 4
  %57 = add nsw i32 %55, %56
  %58 = load i32, ptr %10, align 4
  %59 = add nsw i32 %57, %58
  %60 = add nsw i32 %59, 1
  store i32 %60, ptr %16, align 4
  %61 = load ptr, ptr %8, align 8
  %62 = getelementptr inbounds nuw %struct.TXFM_2D_FLIP_CFG, ptr %61, i32 0, i32 9
  %63 = load i8, ptr %62, align 1
  %64 = zext i8 %63 to i32
  %65 = icmp eq i32 %64, 5
  br i1 %65, label %66, label %75

66:                                               ; preds = %48
  %67 = load i32, ptr %15, align 4
  %68 = icmp eq i32 %67, 1
  br i1 %68, label %69, label %75

69:                                               ; preds = %66
  %70 = load i8, ptr %13, align 1
  %71 = load ptr, ptr %7, align 8
  %72 = load i32, ptr %15, align 4
  %73 = sext i32 %72 to i64
  %74 = getelementptr inbounds i8, ptr %71, i64 %73
  store i8 %70, ptr %74, align 1
  br label %81

75:                                               ; preds = %66, %48
  %76 = load i8, ptr %13, align 1
  %77 = load ptr, ptr %7, align 8
  %78 = load i32, ptr %15, align 4
  %79 = sext i32 %78 to i64
  %80 = getelementptr inbounds i8, ptr %77, i64 %79
  store i8 %76, ptr %80, align 1
  br label %81

81:                                               ; preds = %75, %69
  br label %82

82:                                               ; preds = %81
  %83 = load i32, ptr %15, align 4
  %84 = add nsw i32 %83, 1
  store i32 %84, ptr %15, align 4
  br label %37, !llvm.loop !8

85:                                               ; preds = %46
  store i32 0, ptr %17, align 4
  br label %86

86:                                               ; preds = %136, %85
  %87 = load i32, ptr %17, align 4
  %88 = load ptr, ptr %8, align 8
  %89 = getelementptr inbounds nuw %struct.TXFM_2D_FLIP_CFG, ptr %88, i32 0, i32 10
  %90 = load i32, ptr %89, align 4
  %91 = icmp slt i32 %87, %90
  br i1 %91, label %92, label %95

92:                                               ; preds = %86
  %93 = load i32, ptr %17, align 4
  %94 = icmp slt i32 %93, 12
  br label %95

95:                                               ; preds = %92, %86
  %96 = phi i1 [ false, %86 ], [ %94, %92 ]
  br i1 %96, label %97, label %139

97:                                               ; preds = %95
  %98 = load ptr, ptr %8, align 8
  %99 = getelementptr inbounds nuw %struct.TXFM_2D_FLIP_CFG, ptr %98, i32 0, i32 6
  %100 = load i32, ptr %17, align 4
  %101 = sext i32 %100 to i64
  %102 = getelementptr inbounds [12 x i8], ptr %99, i64 0, i64 %101
  %103 = load i8, ptr %102, align 1
  %104 = sext i8 %103 to i32
  %105 = load i32, ptr %11, align 4
  %106 = add nsw i32 %104, %105
  %107 = load ptr, ptr %12, align 8
  %108 = getelementptr inbounds i8, ptr %107, i64 0
  %109 = load i8, ptr %108, align 1
  %110 = sext i8 %109 to i32
  %111 = add nsw i32 %106, %110
  %112 = load i32, ptr %10, align 4
  %113 = add nsw i32 %111, %112
  %114 = add nsw i32 %113, 1
  store i32 %114, ptr %18, align 4
  %115 = load ptr, ptr %8, align 8
  %116 = getelementptr inbounds nuw %struct.TXFM_2D_FLIP_CFG, ptr %115, i32 0, i32 8
  %117 = load i8, ptr %116, align 2
  %118 = zext i8 %117 to i32
  %119 = icmp eq i32 %118, 5
  br i1 %119, label %120, label %129

120:                                              ; preds = %97
  %121 = load i32, ptr %17, align 4
  %122 = icmp eq i32 %121, 1
  br i1 %122, label %123, label %129

123:                                              ; preds = %120
  %124 = load i8, ptr %14, align 1
  %125 = load ptr, ptr %6, align 8
  %126 = load i32, ptr %17, align 4
  %127 = sext i32 %126 to i64
  %128 = getelementptr inbounds i8, ptr %125, i64 %127
  store i8 %124, ptr %128, align 1
  br label %135

129:                                              ; preds = %120, %97
  %130 = load i8, ptr %14, align 1
  %131 = load ptr, ptr %6, align 8
  %132 = load i32, ptr %17, align 4
  %133 = sext i32 %132 to i64
  %134 = getelementptr inbounds i8, ptr %131, i64 %133
  store i8 %130, ptr %134, align 1
  br label %135

135:                                              ; preds = %129, %123
  br label %136

136:                                              ; preds = %135
  %137 = load i32, ptr %17, align 4
  %138 = add nsw i32 %137, 1
  store i32 %138, ptr %17, align 4
  br label %86, !llvm.loop !9

139:                                              ; preds = %95
  ret void
}