; Function Attrs: nofree norecurse nosync nounwind memory(argmem: readwrite) uwtable
define hidden void @av1_gen_inv_stage_range(ptr noundef writeonly captures(none) %0, ptr noundef writeonly captures(none) %1, ptr noundef readonly captures(none) %2, i8 noundef zeroext %3, i32 noundef %4) local_unnamed_addr #4 {
  switch i32 %4, label %7 [
    i32 8, label %8
    i32 10, label %6
  ]

6:                                                ; preds = %5
  br label %8

7:                                                ; preds = %5
  br label %8

8:                                                ; preds = %5, %6, %7
  %.040 = phi i8 [ 16, %6 ], [ 18, %7 ], [ 16, %5 ]
  %.0 = phi i8 [ 18, %6 ], [ 20, %7 ], [ 16, %5 ]
  %9 = getelementptr inbounds nuw i8, ptr %2, i64 56
  %10 = load i32, ptr %9, align 8
  %11 = icmp sgt i32 %10, 0
  br i1 %11, label %.lr.ph, label %.preheader

.preheader:                                       ; preds = %.lr.ph, %8
  %12 = getelementptr inbounds nuw i8, ptr %2, i64 52
  %13 = load i32, ptr %12, align 4
  %14 = icmp sgt i32 %13, 0
  br i1 %14, label %.lr.ph45, label %._crit_edge

.lr.ph:                                           ; preds = %8, %.lr.ph
  %indvars.iv = phi i64 [ %indvars.iv.next, %.lr.ph ], [ 0, %8 ]
  %15 = getelementptr inbounds nuw i8, ptr %1, i64 %indvars.iv
  store i8 %.0, ptr %15, align 1
  %indvars.iv.next = add nuw nsw i64 %indvars.iv, 1
  %16 = load i32, ptr %9, align 8
  %17 = sext i32 %16 to i64
  %18 = icmp slt i64 %indvars.iv.next, %17
  %19 = icmp samesign ult i64 %indvars.iv, 11
  %20 = select i1 %18, i1 %19, i1 false
  br i1 %20, label %.lr.ph, label %.preheader, !llvm.loop !8

.lr.ph45:                                         ; preds = %.preheader, %.lr.ph45
  %indvars.iv47 = phi i64 [ %indvars.iv.next48, %.lr.ph45 ], [ 0, %.preheader ]
  %21 = getelementptr inbounds nuw i8, ptr %0, i64 %indvars.iv47
  store i8 %.040, ptr %21, align 1
  %indvars.iv.next48 = add nuw nsw i64 %indvars.iv47, 1
  %22 = load i32, ptr %12, align 4
  %23 = sext i32 %22 to i64
  %24 = icmp slt i64 %indvars.iv.next48, %23
  %25 = icmp samesign ult i64 %indvars.iv47, 11
  %26 = select i1 %24, i1 %25, i1 false
  br i1 %26, label %.lr.ph45, label %._crit_edge, !llvm.loop !9

._crit_edge:                                      ; preds = %.lr.ph45, %.preheader
  ret void
}